; Function Attrs: nounwind uwtable
define i32 @EVP_PKEY_parameters_eq(ptr noundef %0, ptr noundef %1) local_unnamed_addr #0 {
  %3 = getelementptr inbounds nuw i8, ptr %0, i64 96
  %4 = load ptr, ptr %3, align 8, !tbaa !30
  %.not = icmp eq ptr %4, null
  br i1 %.not, label %5, label %8

5:                                                ; preds = %2
  %6 = getelementptr inbounds nuw i8, ptr %1, i64 96
  %7 = load ptr, ptr %6, align 8, !tbaa !30
  %.not13 = icmp eq ptr %7, null
  br i1 %.not13, label %10, label %8

8:                                                ; preds = %5, %2
  %9 = tail call fastcc i32 @evp_pkey_cmp_any(ptr noundef nonnull %0, ptr noundef %1, i32 noundef 4)
  br label %21

10:                                               ; preds = %5
  %11 = load i32, ptr %0, align 8, !tbaa !26
  %12 = load i32, ptr %1, align 8, !tbaa !26
  %.not14 = icmp eq i32 %11, %12
  br i1 %.not14, label %13, label %21

13:                                               ; preds = %10
  %14 = getelementptr inbounds nuw i8, ptr %0, i64 8
  %15 = load ptr, ptr %14, align 8, !tbaa !20
  %.not15 = icmp eq ptr %15, null
  br i1 %.not15, label %21, label %16

16:                                               ; preds = %13
  %17 = getelementptr inbounds nuw i8, ptr %15, i64 144
  %18 = load ptr, ptr %17, align 8, !tbaa !32
  %.not16 = icmp eq ptr %18, null
  br i1 %.not16, label %21, label %19

19:                                               ; preds = %16
  %20 = tail call i32 %18(ptr noundef nonnull %0, ptr noundef nonnull %1) #12
  br label %21

21:                                               ; preds = %13, %16, %10, %19, %8
  %.0 = phi i32 [ %9, %8 ], [ %20, %19 ], [ -1, %10 ], [ -2, %16 ], [ -2, %13 ]
  ret i32 %.0
}